; Function Attrs: mustprogress nofree nounwind willreturn memory(readwrite, inaccessiblemem: write) uwtable
define internal void @_ZNK6Assimp3IFC12_GLOBAL__N_17Ellipse4EvalEd(ptr dead_on_unwind noalias writable writeonly sret(%class.aiVector3t) align 8 captures(none) initializes((0, 24)) %0, ptr noundef nonnull readonly align 8 captures(none) dereferenceable(128) %1, double noundef %2) unnamed_addr #23 align 2 {
  %4 = getelementptr inbounds nuw i8, ptr %1, i64 16
  %5 = load ptr, ptr %4, align 8
  %6 = getelementptr inbounds nuw i8, ptr %5, i64 8
  %7 = load double, ptr %6, align 8
  %8 = fneg double %7
  %9 = fmul double %2, %8
  %10 = getelementptr inbounds nuw i8, ptr %1, i64 24
  %11 = getelementptr inbounds nuw i8, ptr %1, i64 120
  %12 = load ptr, ptr %11, align 8
  %13 = getelementptr inbounds nuw i8, ptr %12, i64 96
  %14 = load double, ptr %13, align 8
  %15 = tail call double @cos(double noundef %9) #31
  %16 = fmul double %14, %15
  %17 = getelementptr inbounds nuw i8, ptr %1, i64 48
  %18 = load double, ptr %17, align 8, !noalias !103
  %19 = fmul double %16, %18
  %20 = getelementptr inbounds nuw i8, ptr %1, i64 56
  %21 = load double, ptr %20, align 8, !noalias !103
  %22 = fmul double %16, %21
  %23 = getelementptr inbounds nuw i8, ptr %1, i64 64
  %24 = load double, ptr %23, align 8, !noalias !103
  %25 = fmul double %16, %24
  %26 = load double, ptr %10, align 8, !noalias !106
  %27 = fadd double %19, %26
  %28 = getelementptr inbounds nuw i8, ptr %1, i64 32
  %29 = load double, ptr %28, align 8, !noalias !106
  %30 = fadd double %22, %29
  %31 = getelementptr inbounds nuw i8, ptr %1, i64 40
  %32 = load double, ptr %31, align 8, !noalias !106
  %33 = fadd double %25, %32
  %34 = load ptr, ptr %11, align 8
  %35 = getelementptr inbounds nuw i8, ptr %34, i64 104
  %36 = load double, ptr %35, align 8
  %37 = tail call double @sin(double noundef %9) #31
  %38 = fmul double %36, %37
  %39 = getelementptr inbounds nuw i8, ptr %1, i64 72
  %40 = load double, ptr %39, align 8, !noalias !109
  %41 = fmul double %38, %40
  %42 = getelementptr inbounds nuw i8, ptr %1, i64 80
  %43 = load double, ptr %42, align 8, !noalias !109
  %44 = fmul double %38, %43
  %45 = getelementptr inbounds nuw i8, ptr %1, i64 88
  %46 = load double, ptr %45, align 8, !noalias !109
  %47 = fmul double %38, %46
  %48 = fadd double %27, %41
  %49 = fadd double %30, %44
  %50 = fadd double %33, %47
  store double %48, ptr %0, align 8, !alias.scope !112
  %51 = getelementptr inbounds nuw i8, ptr %0, i64 8
  store double %49, ptr %51, align 8, !alias.scope !112
  %52 = getelementptr inbounds nuw i8, ptr %0, i64 16
  store double %50, ptr %52, align 8, !alias.scope !112
  ret void
}